target datalayout = "e-m:e-p270:32:32-p271:32:32-p272:64:64-i64:64-i128:128-f80:128-n8:16:32:64-S128"
target triple = "x86_64-pc-linux-gnu"

%struct.mbedtls_ecp_point = type { %struct.mbedtls_mpi, %struct.mbedtls_mpi, %struct.mbedtls_mpi }
%struct.mbedtls_mpi = type { ptr, i16, i16 }

; Function Attrs: nounwind uwtable
define internal i32 @ecjpake_zkp_read(i32 noundef %0, ptr noundef %1, i32 noundef %2, ptr noundef %3, ptr noundef %4, ptr noundef %5, ptr noundef %6, ptr noundef %7) #0 {
  %9 = alloca i32, align 4
  %10 = alloca i32, align 4
  %11 = alloca ptr, align 8
  %12 = alloca i32, align 4
  %13 = alloca ptr, align 8
  %14 = alloca ptr, align 8
  %15 = alloca ptr, align 8
  %16 = alloca ptr, align 8
  %17 = alloca ptr, align 8
  %18 = alloca i32, align 4
  %19 = alloca %struct.mbedtls_ecp_point, align 8
  %20 = alloca %struct.mbedtls_ecp_point, align 8
  %21 = alloca %struct.mbedtls_mpi, align 8
  %22 = alloca %struct.mbedtls_mpi, align 8
  %23 = alloca i64, align 8
  %24 = alloca i32, align 4
  store i32 %0, ptr %10, align 4, !tbaa !19
  store ptr %1, ptr %11, align 8, !tbaa !26
  store i32 %2, ptr %12, align 4, !tbaa !19
  store ptr %3, ptr %13, align 8, !tbaa !28
  store ptr %4, ptr %14, align 8, !tbaa !28
  store ptr %5, ptr %15, align 8, !tbaa !20
  store ptr %6, ptr %16, align 8, !tbaa !34
  store ptr %7, ptr %17, align 8, !tbaa !20
  call void @llvm.lifetime.start.p0(i64 4, ptr %18) #9
  store i32 -110, ptr %18, align 4, !tbaa !19
  call void @llvm.lifetime.start.p0(i64 48, ptr %19) #9
  call void @llvm.lifetime.start.p0(i64 48, ptr %20) #9
  call void @llvm.lifetime.start.p0(i64 16, ptr %21) #9
  call void @llvm.lifetime.start.p0(i64 16, ptr %22) #9
  call void @llvm.lifetime.start.p0(i64 8, ptr %23) #9
  call void @mbedtls_ecp_point_init(ptr noundef %19)
  call void @mbedtls_ecp_point_init(ptr noundef %20)
  call void @mbedtls_mpi_init(ptr noundef %21)
  call void @mbedtls_mpi_init(ptr noundef %22)
  %25 = load ptr, ptr %17, align 8, !tbaa !20
  %26 = load ptr, ptr %16, align 8, !tbaa !34
  %27 = load ptr, ptr %26, align 8, !tbaa !20
  %28 = icmp ult ptr %25, %27
  br i1 %28, label %29, label %30

29:                                               ; preds = %8
  store i32 -20352, ptr %9, align 4
  store i32 1, ptr %24, align 4
  br label %126

30:                                               ; preds = %8
  br label %31

31:                                               ; preds = %30
  %32 = load ptr, ptr %11, align 8, !tbaa !26
  %33 = load ptr, ptr %16, align 8, !tbaa !34
  %34 = load ptr, ptr %17, align 8, !tbaa !20
  %35 = load ptr, ptr %16, align 8, !tbaa !34
  %36 = load ptr, ptr %35, align 8, !tbaa !20
  %37 = ptrtoint ptr %34 to i64
  %38 = ptrtoint ptr %36 to i64
  %39 = sub i64 %37, %38
  %40 = call i32 @mbedtls_ecp_tls_read_point(ptr noundef %32, ptr noundef %19, ptr noundef %33, i64 noundef %39)
  store i32 %40, ptr %18, align 4, !tbaa !19
  %41 = icmp ne i32 %40, 0
  br i1 %41, label %42, label %43

42:                                               ; preds = %31
  br label %124

43:                                               ; preds = %31
  br label %44

44:                                               ; preds = %43
  br label %45

45:                                               ; preds = %44
  %46 = load ptr, ptr %17, align 8, !tbaa !20
  %47 = load ptr, ptr %16, align 8, !tbaa !34
  %48 = load ptr, ptr %47, align 8, !tbaa !20
  %49 = icmp ult ptr %46, %48
  br i1 %49, label %58, label %50

50:                                               ; preds = %45
  %51 = load ptr, ptr %17, align 8, !tbaa !20
  %52 = load ptr, ptr %16, align 8, !tbaa !34
  %53 = load ptr, ptr %52, align 8, !tbaa !20
  %54 = ptrtoint ptr %51 to i64
  %55 = ptrtoint ptr %53 to i64
  %56 = sub i64 %54, %55
  %57 = icmp ult i64 %56, 1
  br i1 %57, label %58, label %59

58:                                               ; preds = %50, %45
  store i32 -20352, ptr %18, align 4, !tbaa !19
  br label %124

59:                                               ; preds = %50
  %60 = load ptr, ptr %16, align 8, !tbaa !34
  %61 = load ptr, ptr %60, align 8, !tbaa !20
  %62 = getelementptr inbounds nuw i8, ptr %61, i32 1
  store ptr %62, ptr %60, align 8, !tbaa !20
  %63 = load i8, ptr %61, align 1, !tbaa !38
  %64 = zext i8 %63 to i64
  store i64 %64, ptr %23, align 8, !tbaa !22
  %65 = load ptr, ptr %17, align 8, !tbaa !20
  %66 = load ptr, ptr %16, align 8, !tbaa !34
  %67 = load ptr, ptr %66, align 8, !tbaa !20
  %68 = icmp ult ptr %65, %67
  br i1 %68, label %81, label %69

69:                                               ; preds = %59
  %70 = load ptr, ptr %17, align 8, !tbaa !20
  %71 = load ptr, ptr %16, align 8, !tbaa !34
  %72 = load ptr, ptr %71, align 8, !tbaa !20
  %73 = ptrtoint ptr %70 to i64
  %74 = ptrtoint ptr %72 to i64
  %75 = sub i64 %73, %74
  %76 = load i64, ptr %23, align 8, !tbaa !22
  %77 = icmp ult i64 %75, %76
  br i1 %77, label %81, label %78

78:                                               ; preds = %69
  %79 = load i64, ptr %23, align 8, !tbaa !22
  %80 = icmp eq i64 %79, 0
  br i1 %80, label %81, label %82

81:                                               ; preds = %78, %69, %59
  store i32 -20352, ptr %18, align 4, !tbaa !19
  br label %124

82:                                               ; preds = %78
  br label %83

83:                                               ; preds = %82
  %84 = load ptr, ptr %16, align 8, !tbaa !34
  %85 = load ptr, ptr %84, align 8, !tbaa !20
  %86 = load i64, ptr %23, align 8, !tbaa !22
  %87 = call i32 @mbedtls_mpi_read_binary(ptr noundef %21, ptr noundef %85, i64 noundef %86)
  store i32 %87, ptr %18, align 4, !tbaa !19
  %88 = icmp ne i32 %87, 0
  br i1 %88, label %89, label %90

89:                                               ; preds = %83
  br label %124

90:                                               ; preds = %83
  br label %91

91:                                               ; preds = %90
  br label %92

92:                                               ; preds = %91
  %93 = load i64, ptr %23, align 8, !tbaa !22
  %94 = load ptr, ptr %16, align 8, !tbaa !34
  %95 = load ptr, ptr %94, align 8, !tbaa !20
  %96 = getelementptr inbounds nuw i8, ptr %95, i64 %93
  store ptr %96, ptr %94, align 8, !tbaa !20
  br label %97

97:                                               ; preds = %92
  %98 = load i32, ptr %10, align 4, !tbaa !19
  %99 = load ptr, ptr %11, align 8, !tbaa !26
  %100 = load i32, ptr %12, align 4, !tbaa !19
  %101 = load ptr, ptr %13, align 8, !tbaa !28
  %102 = load ptr, ptr %14, align 8, !tbaa !28
  %103 = load ptr, ptr %15, align 8, !tbaa !20
  %104 = call i32 @ecjpake_hash(i32 noundef %98, ptr noundef %99, i32 noundef %100, ptr noundef %101, ptr noundef %19, ptr noundef %102, ptr noundef %103, ptr noundef %22)
  store i32 %104, ptr %18, align 4, !tbaa !19
  %105 = icmp ne i32 %104, 0
  br i1 %105, label %106, label %107

106:                                              ; preds = %97
  br label %124

107:                                              ; preds = %97
  br label %108

108:                                              ; preds = %107
  br label %109

109:                                              ; preds = %108
  br label %110

110:                                              ; preds = %109
  %111 = load ptr, ptr %11, align 8, !tbaa !26
  %112 = load ptr, ptr %14, align 8, !tbaa !28
  %113 = load ptr, ptr %13, align 8, !tbaa !28
  %114 = call i32 @mbedtls_ecp_muladd(ptr noundef %111, ptr noundef %20, ptr noundef %22, ptr noundef %112, ptr noundef %21, ptr noundef %113)
  store i32 %114, ptr %18, align 4, !tbaa !19
  %115 = icmp ne i32 %114, 0
  br i1 %115, label %116, label %117

116:                                              ; preds = %110
  br label %124

117:                                              ; preds = %110
  br label %118

118:                                              ; preds = %117
  br label %119

119:                                              ; preds = %118
  %120 = call i32 @mbedtls_ecp_point_cmp(ptr noundef %20, ptr noundef %19)
  %121 = icmp ne i32 %120, 0
  br i1 %121, label %122, label %123

122:                                              ; preds = %119
  store i32 -19968, ptr %18, align 4, !tbaa !19
  br label %124

123:                                              ; preds = %119
  br label %124

124:                                              ; preds = %123, %122, %116, %106, %89, %81, %58, %42
  call void @mbedtls_ecp_point_free(ptr noundef %19)
  call void @mbedtls_ecp_point_free(ptr noundef %20)
  call void @mbedtls_mpi_free(ptr noundef %21)
  call void @mbedtls_mpi_free(ptr noundef %22)
  %125 = load i32, ptr %18, align 4, !tbaa !19
  store i32 %125, ptr %9, align 4
  store i32 1, ptr %24, align 4
  br label %126

126:                                              ; preds = %124, %29
  call void @llvm.lifetime.end.p0(i64 8, ptr %23) #9
  call void @llvm.lifetime.end.p0(i64 16, ptr %22) #9
  call void @llvm.lifetime.end.p0(i64 16, ptr %21) #9
  call void @llvm.lifetime.end.p0(i64 48, ptr %20) #9
  call void @llvm.lifetime.end.p0(i64 48, ptr %19) #9
  call void @llvm.lifetime.end.p0(i64 4, ptr %18) #9
  %127 = load i32, ptr %9, align 4
  ret i32 %127
}

; Function Attrs: nounwind uwtable
define internal i32 @ecjpake_kkp_read(i32 noundef %0, ptr noundef %1, i32 noundef %2, ptr noundef %3, ptr noundef %4, ptr noundef %5, ptr noundef %6, ptr noundef %7) #0 {
  %9 = alloca i32, align 4
  %10 = alloca i32, align 4
  %11 = alloca ptr, align 8
  %12 = alloca i32, align 4
  %13 = alloca ptr, align 8
  %14 = alloca ptr, align 8
  %15 = alloca ptr, align 8
  %16 = alloca ptr, align 8
  %17 = alloca ptr, align 8
  %18 = alloca i32, align 4
  %19 = alloca i32, align 4
  store i32 %0, ptr %10, align 4, !tbaa !19
  store ptr %1, ptr %11, align 8, !tbaa !26
  store i32 %2, ptr %12, align 4, !tbaa !19
  store ptr %3, ptr %13, align 8, !tbaa !28
  store ptr %4, ptr %14, align 8, !tbaa !28
  store ptr %5, ptr %15, align 8, !tbaa !20
  store ptr %6, ptr %16, align 8, !tbaa !34
  store ptr %7, ptr %17, align 8, !tbaa !20
  call void @llvm.lifetime.start.p0(i64 4, ptr %18) #9
  store i32 -110, ptr %18, align 4, !tbaa !19
  %20 = load ptr, ptr %17, align 8, !tbaa !20
  %21 = load ptr, ptr %16, align 8, !tbaa !34
  %22 = load ptr, ptr %21, align 8, !tbaa !20
  %23 = icmp ult ptr %20, %22
  br i1 %23, label %24, label %25

24:                                               ; preds = %8
  store i32 -20352, ptr %9, align 4
  store i32 1, ptr %19, align 4
  br label %64

25:                                               ; preds = %8
  br label %26

26:                                               ; preds = %25
  %27 = load ptr, ptr %11, align 8, !tbaa !26
  %28 = load ptr, ptr %14, align 8, !tbaa !28
  %29 = load ptr, ptr %16, align 8, !tbaa !34
  %30 = load ptr, ptr %17, align 8, !tbaa !20
  %31 = load ptr, ptr %16, align 8, !tbaa !34
  %32 = load ptr, ptr %31, align 8, !tbaa !20
  %33 = ptrtoint ptr %30 to i64
  %34 = ptrtoint ptr %32 to i64
  %35 = sub i64 %33, %34
  %36 = call i32 @mbedtls_ecp_tls_read_point(ptr noundef %27, ptr noundef %28, ptr noundef %29, i64 noundef %35)
  store i32 %36, ptr %18, align 4, !tbaa !19
  %37 = icmp ne i32 %36, 0
  br i1 %37, label %38, label %39

38:                                               ; preds = %26
  br label %62

39:                                               ; preds = %26
  br label %40

40:                                               ; preds = %39
  br label %41

41:                                               ; preds = %40
  %42 = load ptr, ptr %14, align 8, !tbaa !28
  %43 = call i32 @mbedtls_ecp_is_zero(ptr noundef %42)
  %44 = icmp ne i32 %43, 0
  br i1 %44, label %45, label %46

45:                                               ; preds = %41
  store i32 -19584, ptr %18, align 4, !tbaa !19
  br label %62

46:                                               ; preds = %41
  br label %47

47:                                               ; preds = %46
  %48 = load i32, ptr %10, align 4, !tbaa !19
  %49 = load ptr, ptr %11, align 8, !tbaa !26
  %50 = load i32, ptr %12, align 4, !tbaa !19
  %51 = load ptr, ptr %13, align 8, !tbaa !28
  %52 = load ptr, ptr %14, align 8, !tbaa !28
  %53 = load ptr, ptr %15, align 8, !tbaa !20
  %54 = load ptr, ptr %16, align 8, !tbaa !34
  %55 = load ptr, ptr %17, align 8, !tbaa !20
  %56 = call i32 @ecjpake_zkp_read(i32 noundef %48, ptr noundef %49, i32 noundef %50, ptr noundef %51, ptr noundef %52, ptr noundef %53, ptr noundef %54, ptr noundef %55)
  store i32 %56, ptr %18, align 4, !tbaa !19
  %57 = icmp ne i32 %56, 0
  br i1 %57, label %58, label %59

58:                                               ; preds = %47
  br label %62

59:                                               ; preds = %47
  br label %60

60:                                               ; preds = %59
  br label %61

61:                                               ; preds = %60
  br label %62

62:                                               ; preds = %61, %58, %45, %38
  %63 = load i32, ptr %18, align 4, !tbaa !19
  store i32 %63, ptr %9, align 4
  store i32 1, ptr %19, align 4
  br label %64

64:                                               ; preds = %62, %24
  call void @llvm.lifetime.end.p0(i64 4, ptr %18) #9
  %65 = load i32, ptr %9, align 4
  ret i32 %65
}