; Function Attrs: nounwind uwtable
define internal fastcc i32 @ecjpake_kkp_read(i32 noundef %0, ptr noundef %1, i32 noundef %2, ptr noundef %3, ptr noundef %4, ptr noundef readonly captures(none) %5, ptr noundef nonnull %6, ptr noundef %7) unnamed_addr #0 {
  %9 = alloca %struct.mbedtls_ecp_point, align 8
  %10 = alloca %struct.mbedtls_ecp_point, align 8
  %11 = alloca %struct.mbedtls_mpi, align 8
  %12 = alloca %struct.mbedtls_mpi, align 8
  %13 = load ptr, ptr %6, align 8, !tbaa !20
  %14 = icmp ult ptr %7, %13
  br i1 %14, label %50, label %15

15:                                               ; preds = %8
  %16 = ptrtoint ptr %7 to i64
  %17 = ptrtoint ptr %13 to i64
  %18 = sub i64 %16, %17
  %19 = tail call i32 @mbedtls_ecp_tls_read_point(ptr noundef %1, ptr noundef %4, ptr noundef nonnull %6, i64 noundef %18) #15
  %.not = icmp eq i32 %19, 0
  br i1 %.not, label %20, label %50

20:                                               ; preds = %15
  %21 = tail call i32 @mbedtls_ecp_is_zero(ptr noundef %4) #15
  %.not21 = icmp eq i32 %21, 0
  br i1 %.not21, label %22, label %50

22:                                               ; preds = %20
  call void @llvm.lifetime.start.p0(i64 48, ptr nonnull %9) #15
  call void @llvm.lifetime.start.p0(i64 48, ptr nonnull %10) #15
  call void @llvm.lifetime.start.p0(i64 16, ptr nonnull %11) #15
  call void @llvm.lifetime.start.p0(i64 16, ptr nonnull %12) #15
  call void @mbedtls_ecp_point_init(ptr noundef nonnull %9) #15
  call void @mbedtls_ecp_point_init(ptr noundef nonnull %10) #15
  call void @mbedtls_mpi_init(ptr noundef nonnull %11) #15
  call void @mbedtls_mpi_init(ptr noundef nonnull %12) #15
  %23 = load ptr, ptr %6, align 8, !tbaa !20
  %24 = icmp ult ptr %7, %23
  br i1 %24, label %ecjpake_zkp_read.exit, label %25

25:                                               ; preds = %22
  %26 = ptrtoint ptr %23 to i64
  %27 = sub i64 %16, %26
  %28 = call i32 @mbedtls_ecp_tls_read_point(ptr noundef %1, ptr noundef nonnull %9, ptr noundef nonnull %6, i64 noundef %27) #15
  %.not.i = icmp eq i32 %28, 0
  br i1 %.not.i, label %29, label %49

29:                                               ; preds = %25
  %30 = load ptr, ptr %6, align 8, !tbaa !20
  %or.cond46.not.i = icmp ugt ptr %7, %30
  br i1 %or.cond46.not.i, label %31, label %49

31:                                               ; preds = %29
  %32 = getelementptr inbounds nuw i8, ptr %30, i64 1
  store ptr %32, ptr %6, align 8, !tbaa !20
  %33 = load i8, ptr %30, align 1, !tbaa !24
  %34 = zext i8 %33 to i64
  %35 = ptrtoint ptr %32 to i64
  %36 = sub i64 %16, %35
  %37 = icmp ult i64 %36, %34
  %38 = icmp eq i8 %33, 0
  %or.cond.i = or i1 %38, %37
  br i1 %or.cond.i, label %49, label %39

39:                                               ; preds = %31
  %40 = call i32 @mbedtls_mpi_read_binary(ptr noundef nonnull %11, ptr noundef nonnull %32, i64 noundef %34) #15
  %.not42.i = icmp eq i32 %40, 0
  br i1 %.not42.i, label %41, label %49

41:                                               ; preds = %39
  %42 = load ptr, ptr %6, align 8, !tbaa !20
  %43 = getelementptr inbounds nuw i8, ptr %42, i64 %34
  store ptr %43, ptr %6, align 8, !tbaa !20
  %44 = call fastcc i32 @ecjpake_hash(i32 noundef %0, ptr noundef %1, i32 noundef %2, ptr noundef %3, ptr noundef %9, ptr noundef %4, ptr noundef readonly %5, ptr noundef %12)
  %.not43.i = icmp eq i32 %44, 0
  br i1 %.not43.i, label %45, label %49

45:                                               ; preds = %41
  %46 = call i32 @mbedtls_ecp_muladd(ptr noundef %1, ptr noundef nonnull %10, ptr noundef nonnull %12, ptr noundef %4, ptr noundef nonnull %11, ptr noundef %3) #15
  %.not44.i = icmp eq i32 %46, 0
  br i1 %.not44.i, label %47, label %49

47:                                               ; preds = %45
  %48 = call i32 @mbedtls_ecp_point_cmp(ptr noundef nonnull %10, ptr noundef nonnull %9) #15
  %.not45.i = icmp eq i32 %48, 0
  %spec.select.i = select i1 %.not45.i, i32 0, i32 -19968
  br label %49

49:                                               ; preds = %47, %45, %41, %39, %31, %29, %25
  %.032.i = phi i32 [ %28, %25 ], [ %40, %39 ], [ %44, %41 ], [ %46, %45 ], [ -20352, %29 ], [ -20352, %31 ], [ %spec.select.i, %47 ]
  call void @mbedtls_ecp_point_free(ptr noundef nonnull %9) #15
  call void @mbedtls_ecp_point_free(ptr noundef nonnull %10) #15
  call void @mbedtls_mpi_free(ptr noundef nonnull %11) #15
  call void @mbedtls_mpi_free(ptr noundef nonnull %12) #15
  br label %ecjpake_zkp_read.exit

ecjpake_zkp_read.exit:                            ; preds = %22, %49
  %.0.i = phi i32 [ %.032.i, %49 ], [ -20352, %22 ]
  call void @llvm.lifetime.end.p0(i64 16, ptr nonnull %12) #15
  call void @llvm.lifetime.end.p0(i64 16, ptr nonnull %11) #15
  call void @llvm.lifetime.end.p0(i64 48, ptr nonnull %10) #15
  call void @llvm.lifetime.end.p0(i64 48, ptr nonnull %9) #15
  br label %50

50:                                               ; preds = %15, %ecjpake_zkp_read.exit, %20, %8
  %.017 = phi i32 [ -20352, %8 ], [ %19, %15 ], [ %.0.i, %ecjpake_zkp_read.exit ], [ -19584, %20 ]
  ret i32 %.017
}